; ModuleID = '45/1408.c'
source_filename = "45/1408.c"
target datalayout = "e-m:e-p270:32:32-p271:32:32-p272:64:64-i64:64-f80:128-n8:16:32:64-S128"
target triple = "x86_64-pc-linux-gnu"

@.str = private unnamed_addr constant [3 x i8] c"%s\00", align 1
@.str.1 = private unnamed_addr constant [3 x i8] c"%d\00", align 1

; Function Attrs: noinline nounwind uwtable
define dso_local i32 @main() #0 {
  %1 = alloca i32, align 4
  %2 = alloca [51 x i8], align 16
  %3 = alloca [51 x i8], align 16
  %4 = alloca [2 x [51 x i8]], align 16
  %5 = alloca i32, align 4
  %6 = alloca i32, align 4
  %7 = alloca i32, align 4
  %8 = alloca i32, align 4
  %9 = alloca i32, align 4
  store i32 0, i32* %1, align 4
  store i32 0, i32* %5, align 4
  store i32 0, i32* %6, align 4
  store i32 0, i32* %7, align 4
  store i32 0, i32* %8, align 4
  store i32 0, i32* %9, align 4
  store i32 0, i32* %9, align 4
  br label %10

10:                                               ; preds = %19, %0
  %11 = load i32, i32* %9, align 4
  %12 = icmp slt i32 %11, 2
  br i1 %12, label %13, label %22

13:                                               ; preds = %10
  %14 = load i32, i32* %9, align 4
  %15 = sext i32 %14 to i64
  %16 = getelementptr inbounds [2 x [51 x i8]], [2 x [51 x i8]]* %4, i64 0, i64 %15
  %17 = getelementptr inbounds [51 x i8], [51 x i8]* %16, i64 0, i64 0
  %18 = call i32 (i8*, ...) @__isoc99_scanf(i8* getelementptr inbounds ([3 x i8], [3 x i8]* @.str, i64 0, i64 0), i8* %17)
  br label %19

19:                                               ; preds = %13
  %20 = load i32, i32* %9, align 4
  %21 = add nsw i32 %20, 1
  store i32 %21, i32* %9, align 4
  br label %10

22:                                               ; preds = %10
  %23 = getelementptr inbounds [51 x i8], [51 x i8]* %2, i64 0, i64 0
  %24 = getelementptr inbounds [2 x [51 x i8]], [2 x [51 x i8]]* %4, i64 0, i64 0
  %25 = getelementptr inbounds [51 x i8], [51 x i8]* %24, i64 0, i64 0
  %26 = call i8* @strcpy(i8* %23, i8* %25) #4
  %27 = getelementptr inbounds [51 x i8], [51 x i8]* %3, i64 0, i64 0
  %28 = getelementptr inbounds [2 x [51 x i8]], [2 x [51 x i8]]* %4, i64 0, i64 1
  %29 = getelementptr inbounds [51 x i8], [51 x i8]* %28, i64 0, i64 0
  %30 = call i8* @strcpy(i8* %27, i8* %29) #4
  %31 = getelementptr inbounds [51 x i8], [51 x i8]* %2, i64 0, i64 0
  %32 = call i64 @strlen(i8* %31) #5
  %33 = trunc i64 %32 to i32
  store i32 %33, i32* %7, align 4
  store i32 0, i32* %5, align 4
  br label %34

34:                                               ; preds = %67, %22
  %35 = load i32, i32* %5, align 4
  %36 = sext i32 %35 to i64
  %37 = getelementptr inbounds [51 x i8], [51 x i8]* %3, i64 0, i64 %36
  %38 = load i8, i8* %37, align 1
  %39 = sext i8 %38 to i32
  %40 = icmp ne i32 %39, 0
  br i1 %40, label %41, label %70

41:                                               ; preds = %34
  %42 = load i32, i32* %5, align 4
  %43 = sext i32 %42 to i64
  %44 = getelementptr inbounds [51 x i8], [51 x i8]* %3, i64 0, i64 %43
  %45 = load i8, i8* %44, align 1
  %46 = sext i8 %45 to i32
  %47 = load i32, i32* %6, align 4
  %48 = sext i32 %47 to i64
  %49 = getelementptr inbounds [51 x i8], [51 x i8]* %2, i64 0, i64 %48
  %50 = load i8, i8* %49, align 1
  %51 = sext i8 %50 to i32
  %52 = icmp eq i32 %46, %51
  br i1 %52, label %53, label %66

53:                                               ; preds = %41
  %54 = getelementptr inbounds [51 x i8], [51 x i8]* %2, i64 0, i64 0
  %55 = getelementptr inbounds [51 x i8], [51 x i8]* %3, i64 0, i64 0
  %56 = load i32, i32* %5, align 4
  %57 = sext i32 %56 to i64
  %58 = getelementptr inbounds i8, i8* %55, i64 %57
  %59 = load i32, i32* %7, align 4
  %60 = sext i32 %59 to i64
  %61 = call i32 @memcmp(i8* %54, i8* %58, i64 %60) #5
  %62 = icmp eq i32 %61, 0
  br i1 %62, label %63, label %65

63:                                               ; preds = %53
  %64 = load i32, i32* %5, align 4
  store i32 %64, i32* %8, align 4
  br label %70

65:                                               ; preds = %53
  br label %66

66:                                               ; preds = %65, %41
  br label %67

67:                                               ; preds = %66
  %68 = load i32, i32* %5, align 4
  %69 = add nsw i32 %68, 1
  store i32 %69, i32* %5, align 4
  br label %34

70:                                               ; preds = %63, %34
  %71 = load i32, i32* %8, align 4
  %72 = call i32 (i8*, ...) @printf(i8* getelementptr inbounds ([3 x i8], [3 x i8]* @.str.1, i64 0, i64 0), i32 %71)
  ret i32 0
}

declare dso_local i32 @__isoc99_scanf(i8*, ...) #1

; Function Attrs: nounwind
declare dso_local i8* @strcpy(i8*, i8*) #2

; Function Attrs: nounwind readonly
declare dso_local i64 @strlen(i8*) #3

; Function Attrs: nounwind readonly
declare dso_local i32 @memcmp(i8*, i8*, i64) #3

declare dso_local i32 @printf(i8*, ...) #1


!llvm.module.flags = !{!0}
!llvm.ident = !{!1}

!0 = !{i32 1, !"wchar_size", i32 4}
!1 = !{!"clang version 10.0.0-4ubuntu1 "}
