; ModuleID = 'source-C-CXX/44/1408.c'
source_filename = "source-C-CXX/44/1408.c"
target datalayout = "e-m:e-p270:32:32-p271:32:32-p272:64:64-i64:64-f80:128-n8:16:32:64-S128"
target triple = "x86_64-pc-linux-gnu"

@.str = private unnamed_addr constant [3 x i8] c"%s\00", align 1
@.str.1 = private unnamed_addr constant [3 x i8] c"%d\00", align 1

; Function Attrs: nofree nounwind sspstrong uwtable
define dso_local i32 @main() local_unnamed_addr #0 {
  %1 = alloca [51 x i8], align 16
  %2 = alloca [51 x i8], align 16
  %3 = alloca [2 x [51 x i8]], align 16
  %4 = getelementptr inbounds [51 x i8], [51 x i8]* %1, i64 0, i64 0
  call void @llvm.lifetime.start.p0i8(i64 51, i8* nonnull %4) #6
  %5 = getelementptr inbounds [51 x i8], [51 x i8]* %2, i64 0, i64 0
  call void @llvm.lifetime.start.p0i8(i64 51, i8* nonnull %5) #6
  %6 = getelementptr inbounds [2 x [51 x i8]], [2 x [51 x i8]]* %3, i64 0, i64 0, i64 0
  call void @llvm.lifetime.start.p0i8(i64 102, i8* nonnull %6) #6
  %7 = call i32 (i8*, ...) @__isoc99_scanf(i8* getelementptr inbounds ([3 x i8], [3 x i8]* @.str, i64 0, i64 0), i8* nonnull %6)
  %8 = getelementptr inbounds [2 x [51 x i8]], [2 x [51 x i8]]* %3, i64 0, i64 1, i64 0
  %9 = call i32 (i8*, ...) @__isoc99_scanf(i8* getelementptr inbounds ([3 x i8], [3 x i8]* @.str, i64 0, i64 0), i8* nonnull %8)
  %10 = call i8* @strcpy(i8* noundef nonnull %4, i8* noundef nonnull %6) #6
  %11 = call i8* @strcpy(i8* noundef nonnull %5, i8* noundef nonnull %8) #6
  %12 = call i64 @strlen(i8* noundef nonnull %4) #7
  %13 = shl i64 %12, 32
  %14 = ashr exact i64 %13, 32
  %15 = load i8, i8* %4, align 16
  %16 = load i8, i8* %5, align 16, !tbaa !5
  %17 = icmp eq i8 %16, 0
  br i1 %17, label %33, label %18

18:                                               ; preds = %0, %26
  %19 = phi i64 [ %27, %26 ], [ 0, %0 ]
  %20 = phi i8 [ %29, %26 ], [ %16, %0 ]
  %21 = phi i8* [ %28, %26 ], [ %5, %0 ]
  %22 = icmp eq i8 %20, %15
  br i1 %22, label %23, label %26

23:                                               ; preds = %18
  %24 = call i32 @bcmp(i8* nonnull %4, i8* nonnull %21, i64 %14)
  %25 = icmp eq i32 %24, 0
  br i1 %25, label %31, label %26

26:                                               ; preds = %18, %23
  %27 = add nuw i64 %19, 1
  %28 = getelementptr inbounds [51 x i8], [51 x i8]* %2, i64 0, i64 %27
  %29 = load i8, i8* %28, align 1, !tbaa !5
  %30 = icmp eq i8 %29, 0
  br i1 %30, label %33, label %18, !llvm.loop !8

31:                                               ; preds = %23
  %32 = trunc i64 %19 to i32
  br label %33

33:                                               ; preds = %26, %31, %0
  %34 = phi i32 [ 0, %0 ], [ %32, %31 ], [ 0, %26 ]
  %35 = call i32 (i8*, ...) @printf(i8* nonnull dereferenceable(1) getelementptr inbounds ([3 x i8], [3 x i8]* @.str.1, i64 0, i64 0), i32 %34)
  call void @llvm.lifetime.end.p0i8(i64 102, i8* nonnull %6) #6
  call void @llvm.lifetime.end.p0i8(i64 51, i8* nonnull %5) #6
  call void @llvm.lifetime.end.p0i8(i64 51, i8* nonnull %4) #6
  ret i32 0
}

; Function Attrs: argmemonly mustprogress nofree nosync nounwind willreturn
declare void @llvm.lifetime.start.p0i8(i64 immarg, i8* nocapture) #1

; Function Attrs: nofree nounwind
declare noundef i32 @__isoc99_scanf(i8* nocapture noundef readonly, ...) local_unnamed_addr #2

; Function Attrs: argmemonly mustprogress nofree nounwind willreturn
declare i8* @strcpy(i8* noalias returned writeonly, i8* noalias nocapture readonly) local_unnamed_addr #3

; Function Attrs: argmemonly mustprogress nofree nounwind readonly willreturn
declare i64 @strlen(i8* nocapture) local_unnamed_addr #4

; Function Attrs: nofree nounwind
declare noundef i32 @printf(i8* nocapture noundef readonly, ...) local_unnamed_addr #2

; Function Attrs: argmemonly mustprogress nofree nosync nounwind willreturn
declare void @llvm.lifetime.end.p0i8(i64 immarg, i8* nocapture) #1

; Function Attrs: argmemonly nofree nounwind readonly willreturn
declare i32 @bcmp(i8* nocapture, i8* nocapture, i64) local_unnamed_addr #5


!llvm.module.flags = !{!0, !1, !2, !3}
!llvm.ident = !{!4}

!0 = !{i32 1, !"wchar_size", i32 4}
!1 = !{i32 7, !"PIC Level", i32 2}
!2 = !{i32 7, !"PIE Level", i32 2}
!3 = !{i32 7, !"uwtable", i32 1}
!4 = !{!"clang version 13.0.0"}
!5 = !{!6, !6, i64 0}
!6 = !{!"omnipotent char", !7, i64 0}
!7 = !{!"Simple C/C++ TBAA"}
!8 = distinct !{!8, !9}
!9 = !{!"llvm.loop.mustprogress"}
